target datalayout = "e-m:e-p270:32:32-p271:32:32-p272:64:64-i64:64-i128:128-f80:128-n8:16:32:64-S128"
target triple = "x86_64-pc-linux-gnu"

%union.pthread_mutex_t = type { %struct.__pthread_mutex_s }
%struct.__pthread_mutex_s = type { i32, i32, i32, i32, i32, i16, i16, %struct.__pthread_internal_list }
%struct.__pthread_internal_list = type { ptr, ptr }

@maintenance_lock = internal global %union.pthread_mutex_t zeroinitializer, align 8

; Function Attrs: nounwind uwtable
define dso_local ptr @assoc_get_iterator() #0 {
  %1 = alloca ptr, align 8
  %2 = alloca ptr, align 8
  %3 = alloca i32, align 4
  call void @llvm.lifetime.start.p0(i64 8, ptr %2) #9
  %4 = call noalias ptr @calloc(i64 noundef 1, i64 noundef 32) #8
  store ptr %4, ptr %2, align 8, !tbaa !42
  %5 = load ptr, ptr %2, align 8, !tbaa !42
  %6 = icmp eq ptr %5, null
  br i1 %6, label %7, label %8

7:                                                ; preds = %0
  store ptr null, ptr %1, align 8
  store i32 1, ptr %3, align 4
  br label %14

8:                                                ; preds = %0
  %9 = call i32 @pthread_mutex_trylock(ptr noundef @maintenance_lock) #9
  %10 = icmp eq i32 %9, 0
  br i1 %10, label %11, label %13

11:                                               ; preds = %8
  %12 = load ptr, ptr %2, align 8, !tbaa !42
  store ptr %12, ptr %1, align 8
  store i32 1, ptr %3, align 4
  br label %14

13:                                               ; preds = %8
  store ptr null, ptr %1, align 8
  store i32 1, ptr %3, align 4
  br label %14

14:                                               ; preds = %13, %11, %7
  call void @llvm.lifetime.end.p0(i64 8, ptr %2) #9
  %15 = load ptr, ptr %1, align 8
  ret ptr %15
}