; Function Attrs: nounwind uwtable
define dso_local noalias ptr @assoc_get_iterator() local_unnamed_addr #0 {
  %1 = tail call noalias dereferenceable_or_null(32) ptr @calloc(i64 noundef 1, i64 noundef 32) #15
  %2 = icmp eq ptr %1, null
  br i1 %2, label %6, label %3

3:                                                ; preds = %0
  %4 = tail call i32 @pthread_mutex_trylock(ptr noundef nonnull @maintenance_lock) #18
  %5 = icmp eq i32 %4, 0
  %. = select i1 %5, ptr %1, ptr null
  br label %6

6:                                                ; preds = %3, %0
  %.0 = phi ptr [ null, %0 ], [ %., %3 ]
  ret ptr %.0
}